; Function Attrs: mustprogress uwtable
define noundef double @_ZNK8QuantLib30AndreasenHugeVolatilityAdapter9minStrikeEv(ptr nocapture noundef nonnull readonly align 8 dereferenceable(96) %this) unnamed_addr #7 align 2 {
entry:
  %volInterpl_ = getelementptr inbounds nuw i8, ptr %this, i64 80
  %0 = load ptr, ptr %volInterpl_, align 8, !tbaa !57
  %cmp.not.i = icmp eq ptr %0, null
  br i1 %cmp.not.i, label %cond.false.i, label %_ZNK5boost10shared_ptrIN8QuantLib30AndreasenHugeVolatilityInterplEEptEv.exit, !prof !58

cond.false.i:                                     ; preds = %entry
  tail call void @_ZN5boost16assertion_failedEPKcS1_S1_l(ptr noundef nonnull @.str.9, ptr noundef nonnull @__PRETTY_FUNCTION__._ZNK5boost10shared_ptrIN8QuantLib30AndreasenHugeVolatilityInterplEEptEv, ptr noundef nonnull @.str.10, i64 noundef 784)
  %.pre.i = load ptr, ptr %volInterpl_, align 8, !tbaa !57
  br label %_ZNK5boost10shared_ptrIN8QuantLib30AndreasenHugeVolatilityInterplEEptEv.exit

_ZNK5boost10shared_ptrIN8QuantLib30AndreasenHugeVolatilityInterplEEptEv.exit: ; preds = %entry, %cond.false.i
  %1 = phi ptr [ %0, %entry ], [ %.pre.i, %cond.false.i ]
  %call2 = tail call noundef double @_ZNK8QuantLib30AndreasenHugeVolatilityInterpl9minStrikeEv(ptr noundef nonnull align 8 dereferenceable(488) %1)
  ret double %call2
}